; Function Attrs: mustprogress uwtable
define hidden void @_ZN13simple_parser14add_builtin_opEPKcii(ptr noundef nonnull align 8 dereferenceable(80) %0, ptr noundef %1, i32 noundef %2, i32 noundef %3) local_unnamed_addr #3 align 2 {
  %5 = alloca %struct._key_data.41, align 8
  %6 = alloca %class.symbol, align 8
  call void @llvm.lifetime.start.p0(i64 8, ptr nonnull %6) #20
  call void @_ZN6symbolC1EPKc(ptr noundef nonnull align 8 dereferenceable(8) %6, ptr noundef %1)
  %7 = getelementptr inbounds nuw i8, ptr %0, i64 16
  call void @llvm.lifetime.start.p0(i64 16, ptr nonnull %5) #20
  %8 = load i64, ptr %6, align 8, !tbaa !33
  store i64 %8, ptr %5, align 8, !tbaa !33
  %9 = getelementptr inbounds nuw i8, ptr %5, i64 8
  %.sroa.4.0.insert.ext.i = zext i32 %3 to i64
  %.sroa.4.0.insert.shift.i = shl nuw i64 %.sroa.4.0.insert.ext.i, 32
  %.sroa.0.0.insert.ext.i = zext i32 %2 to i64
  %.sroa.0.0.insert.insert.i = or disjoint i64 %.sroa.4.0.insert.shift.i, %.sroa.0.0.insert.ext.i
  store i64 %.sroa.0.0.insert.insert.i, ptr %9, align 8
  call void @_ZN14core_hashtableI17default_map_entryI6symbolN13simple_parser10builtin_opEEN9table2mapIS4_16symbol_hash_proc14symbol_eq_procE15entry_hash_procENS8_13entry_eq_procEE6insertEO9_key_dataIS1_S3_E(ptr noundef nonnull align 8 dereferenceable(24) %7, ptr noundef nonnull align 8 dereferenceable(16) %5)
  call void @llvm.lifetime.end.p0(i64 16, ptr nonnull %5) #20
  call void @llvm.lifetime.end.p0(i64 8, ptr nonnull %6) #20
  ret void
}